EXPORTS 
??$hash@PAX@HL@@YAIPAX@Z
??0?$ANSIWrapper@V?$IgnoreInvalidFree@V?$HybridHeap@$0HPMA@V?$ThreadPoolHeap@$0EAA@$0IA@VPerThreadHoardHeap@Hoard@@@Hoard@@VBigHeap@2@@HL@@@Hoard@@@HL@@QAE@XZ
??0?$AlignedMmapInstance@$0BAAAA@@Hoard@@QAE@XZ
??0?$AlignedSuperblockHeap@VWinLockType@HL@@$0BAAAA@@Hoard@@QAE@XZ
??0?$AlignedSuperblockHeapHelper@VWinLockType@HL@@$0BAAAA@@Hoard@@QAE@XZ
??0?$Array@$0DH@V?$ManageOneSuperblock@V?$EmptyClass@V?$HoardSuperblock@VWinLockType@HL@@$0BAAAA@V?$ProcessHeap@$0BAAAA@$07VWinLockType@HL@@VbogusThresholdFunctionClass@?$GlobalHeap@$0BAAAA@$07VWinLockType@HL@@@Hoard@@@Hoard@@@Hoard@@$07@Hoard@@@Hoard@@@Hoard@@QAE@XZ
??0?$Array@$0DH@V?$ManageOneSuperblock@V?$EmptyClass@V?$HoardSuperblock@VWinLockType@HL@@$0BAAAA@VSmallHeap@Hoard@@@Hoard@@$07@Hoard@@@Hoard@@@Hoard@@QAE@XZ
??0?$Array@$0DH@VDLList@HL@@@Hoard@@QAE@XZ
??0?$Array@$0DH@VStatistics@Hoard@@@Hoard@@QAE@XZ
??0?$Array@$0IA@VPerThreadHoardHeap@Hoard@@@Hoard@@QAE@XZ
??0?$BaseHoardManager@V?$HoardSuperblock@VWinLockType@HL@@$0BAAAA@V?$ProcessHeap@$0BAAAA@$07VWinLockType@HL@@VbogusThresholdFunctionClass@?$GlobalHeap@$0BAAAA@$07VWinLockType@HL@@@Hoard@@@Hoard@@@Hoard@@@@QAE@XZ
??0?$BaseHoardManager@V?$HoardSuperblock@VWinLockType@HL@@$0BAAAA@VSmallHeap@Hoard@@@Hoard@@@@QAE@XZ
??0?$BumpAlloc@$0BAAAA@VMmapAlloc@Hoard@@@Hoard@@QAE@XZ
??0?$Check@V?$EmptyClass@V?$HoardSuperblock@VWinLockType@HL@@$0BAAAA@V?$ProcessHeap@$0BAAAA@$07VWinLockType@HL@@VbogusThresholdFunctionClass@?$GlobalHeap@$0BAAAA@$07VWinLockType@HL@@@Hoard@@@Hoard@@@Hoard@@$07@Hoard@@VMyChecker@12@@@QAE@PAV?$EmptyClass@V?$HoardSuperblock@VWinLockType@HL@@$0BAAAA@V?$ProcessHeap@$0BAAAA@$07VWinLockType@HL@@VbogusThresholdFunctionClass@?$GlobalHeap@$0BAAAA@$07VWinLockType@HL@@@Hoard@@@Hoard@@@Hoard@@$07@Hoard@@@Z
??0?$Check@V?$EmptyClass@V?$HoardSuperblock@VWinLockType@HL@@$0BAAAA@VSmallHeap@Hoard@@@Hoard@@$07@Hoard@@VMyChecker@12@@@QAE@PAV?$EmptyClass@V?$HoardSuperblock@VWinLockType@HL@@$0BAAAA@VSmallHeap@Hoard@@@Hoard@@$07@Hoard@@@Z
??0?$Check@V?$HoardManager@V?$AlignedSuperblockHeap@VWinLockType@HL@@$0BAAAA@@Hoard@@V?$EmptyHoardManager@V?$HoardSuperblock@VWinLockType@HL@@$0BAAAA@V?$ProcessHeap@$0BAAAA@$07VWinLockType@HL@@VbogusThresholdFunctionClass@?$GlobalHeap@$0BAAAA@$07VWinLockType@HL@@@Hoard@@@Hoard@@@Hoard@@@@V?$HoardSuperblock@VWinLockType@HL@@$0BAAAA@V?$ProcessHeap@$0BAAAA@$07VWinLockType@HL@@VbogusThresholdFunctionClass@?$GlobalHeap@$0BAAAA@$07VWinLockType@HL@@@Hoard@@@Hoard@@@2@$07VWinLockType@HL@@VbogusThresholdFunctionClass@?$GlobalHeap@$0BAAAA@$07VWinLockType@HL@@@2@V?$ProcessHeap@$0BAAAA@$07VWinLockType@HL@@VbogusThresholdFunctionClass@?$GlobalHeap@$0BAAAA@$07VWinLockType@HL@@@Hoard@@@2@@Hoard@@VsanityCheck@12@@@QAE@PAV?$HoardManager@V?$AlignedSuperblockHeap@VWinLockType@HL@@$0BAAAA@@Hoard@@V?$EmptyHoardManager@V?$HoardSuperblock@VWinLockType@HL@@$0BAAAA@V?$ProcessHeap@$0BAAAA@$07VWinLockType@HL@@VbogusThresholdFunctionClass@?$GlobalHeap@$0BAAAA@$07VWinLockType@HL@@@Hoard@@@Hoard@@@Hoard@@@@V?$HoardSuperblock@VWinLockType@HL@@$0BAAAA@V?$ProcessHeap@$0BAAAA@$07VWinLockType@HL@@VbogusThresholdFunctionClass@?$GlobalHeap@$0BAAAA@$07VWinLockType@HL@@@Hoard@@@Hoard@@@2@$07VWinLockType@HL@@VbogusThresholdFunctionClass@?$GlobalHeap@$0BAAAA@$07VWinLockType@HL@@@2@V?$ProcessHeap@$0BAAAA@$07VWinLockType@HL@@VbogusThresholdFunctionClass@?$GlobalHeap@$0BAAAA@$07VWinLockType@HL@@@Hoard@@@2@@Hoard@@@Z
??0?$Check@V?$HoardManager@V?$AlignedSuperblockHeap@VWinLockType@HL@@$0BAAAA@@Hoard@@V?$GlobalHeap@$0BAAAA@$07VWinLockType@HL@@@2@V?$HoardSuperblock@VWinLockType@HL@@$0BAAAA@VSmallHeap@Hoard@@@2@$07VWinLockType@HL@@VhoardThresholdFunctionClass@2@VSmallHeap@2@@Hoard@@VsanityCheck@12@@@QAE@PAV?$HoardManager@V?$AlignedSuperblockHeap@VWinLockType@HL@@$0BAAAA@@Hoard@@V?$GlobalHeap@$0BAAAA@$07VWinLockType@HL@@@2@V?$HoardSuperblock@VWinLockType@HL@@$0BAAAA@VSmallHeap@Hoard@@@2@$07VWinLockType@HL@@VhoardThresholdFunctionClass@2@VSmallHeap@2@@Hoard@@@Z
??0?$ConformantHeap@V?$HoardManager@V?$AlignedSuperblockHeap@VWinLockType@HL@@$0BAAAA@@Hoard@@V?$EmptyHoardManager@V?$HoardSuperblock@VWinLockType@HL@@$0BAAAA@V?$ProcessHeap@$0BAAAA@$07VWinLockType@HL@@VbogusThresholdFunctionClass@?$GlobalHeap@$0BAAAA@$07VWinLockType@HL@@@Hoard@@@Hoard@@@Hoard@@@@V?$HoardSuperblock@VWinLockType@HL@@$0BAAAA@V?$ProcessHeap@$0BAAAA@$07VWinLockType@HL@@VbogusThresholdFunctionClass@?$GlobalHeap@$0BAAAA@$07VWinLockType@HL@@@Hoard@@@Hoard@@@2@$07VWinLockType@HL@@VbogusThresholdFunctionClass@?$GlobalHeap@$0BAAAA@$07VWinLockType@HL@@@2@V?$ProcessHeap@$0BAAAA@$07VWinLockType@HL@@VbogusThresholdFunctionClass@?$GlobalHeap@$0BAAAA@$07VWinLockType@HL@@@Hoard@@@2@@Hoard@@@Hoard@@QAE@XZ
??0?$ConformantHeap@V?$HoardManager@V?$AlignedSuperblockHeap@VWinLockType@HL@@$0BAAAA@@Hoard@@V?$GlobalHeap@$0BAAAA@$07VWinLockType@HL@@@2@V?$HoardSuperblock@VWinLockType@HL@@$0BAAAA@VSmallHeap@Hoard@@@2@$07VWinLockType@HL@@VhoardThresholdFunctionClass@2@VSmallHeap@2@@Hoard@@@Hoard@@QAE@XZ
??0?$ConformantHeap@V?$LockedHeap@VWinLockType@HL@@V?$AddHeaderHeap@V?$HoardSuperblock@VWinLockType@HL@@$0BAAAA@VBigHeap@Hoard@@@Hoard@@$0BAAAA@V?$AlignedMmap@$0BAAAA@@2@@Hoard@@@HL@@@Hoard@@QAE@XZ
??0?$ConformantHeap@V?$LockedHeap@VWinLockType@HL@@V?$FixedRequestHeap@$0BAAAA@V?$SuperblockStore@$0BAAAA@@Hoard@@@Hoard@@@HL@@@Hoard@@QAE@XZ
??0?$EmptyClass@V?$HoardSuperblock@VWinLockType@HL@@$0BAAAA@V?$ProcessHeap@$0BAAAA@$07VWinLockType@HL@@VbogusThresholdFunctionClass@?$GlobalHeap@$0BAAAA@$07VWinLockType@HL@@@Hoard@@@Hoard@@@Hoard@@$07@Hoard@@QAE@XZ
??0?$EmptyClass@V?$HoardSuperblock@VWinLockType@HL@@$0BAAAA@VSmallHeap@Hoard@@@Hoard@@$07@Hoard@@QAE@XZ
??0?$EmptyHoardManager@V?$HoardSuperblock@VWinLockType@HL@@$0BAAAA@V?$ProcessHeap@$0BAAAA@$07VWinLockType@HL@@VbogusThresholdFunctionClass@?$GlobalHeap@$0BAAAA@$07VWinLockType@HL@@@Hoard@@@Hoard@@@Hoard@@@@QAE@XZ
??0?$FixedRequestHeap@$0BAAAA@V?$SuperblockStore@$0BAAAA@@Hoard@@@Hoard@@QAE@XZ
??0?$FreelistHeap@V?$BumpAlloc@$0BAAAA@VMmapAlloc@Hoard@@@Hoard@@@HL@@QAE@XZ
??0?$GlobalHeap@$0BAAAA@$07VWinLockType@HL@@@Hoard@@QAE@XZ
??0?$Guard@VSmallHeap@Hoard@@@HL@@QAE@AAVSmallHeap@Hoard@@@Z
??0?$Guard@VWinLockType@HL@@@HL@@QAE@AAVWinLockType@1@@Z
??0?$HeapManager@VWinLockType@HL@@V?$HoardHeap@$0EAA@$0IA@@Hoard@@@Hoard@@QAE@XZ
??0?$HoardHeap@$0EAA@$0IA@@Hoard@@QAE@XZ
??0?$HoardManager@V?$AlignedSuperblockHeap@VWinLockType@HL@@$0BAAAA@@Hoard@@V?$EmptyHoardManager@V?$HoardSuperblock@VWinLockType@HL@@$0BAAAA@V?$ProcessHeap@$0BAAAA@$07VWinLockType@HL@@VbogusThresholdFunctionClass@?$GlobalHeap@$0BAAAA@$07VWinLockType@HL@@@Hoard@@@Hoard@@@Hoard@@@@V?$HoardSuperblock@VWinLockType@HL@@$0BAAAA@V?$ProcessHeap@$0BAAAA@$07VWinLockType@HL@@VbogusThresholdFunctionClass@?$GlobalHeap@$0BAAAA@$07VWinLockType@HL@@@Hoard@@@Hoard@@@2@$07VWinLockType@HL@@VbogusThresholdFunctionClass@?$GlobalHeap@$0BAAAA@$07VWinLockType@HL@@@2@V?$ProcessHeap@$0BAAAA@$07VWinLockType@HL@@VbogusThresholdFunctionClass@?$GlobalHeap@$0BAAAA@$07VWinLockType@HL@@@Hoard@@@2@@Hoard@@QAE@XZ
??0?$HoardManager@V?$AlignedSuperblockHeap@VWinLockType@HL@@$0BAAAA@@Hoard@@V?$GlobalHeap@$0BAAAA@$07VWinLockType@HL@@@2@V?$HoardSuperblock@VWinLockType@HL@@$0BAAAA@VSmallHeap@Hoard@@@2@$07VWinLockType@HL@@VhoardThresholdFunctionClass@2@VSmallHeap@2@@Hoard@@QAE@XZ
??0?$HoardSuperblock@VWinLockType@HL@@$0BAAAA@VSmallHeap@Hoard@@@Hoard@@QAE@I@Z
??0?$HoardSuperblockHeader@VWinLockType@HL@@$0BAAAA@VBigHeap@Hoard@@@Hoard@@QAE@II@Z
??0?$HoardSuperblockHeader@VWinLockType@HL@@$0BAAAA@VSmallHeap@Hoard@@@Hoard@@QAE@II@Z
??0?$HybridHeap@$0HPMA@V?$ThreadPoolHeap@$0EAA@$0IA@VPerThreadHoardHeap@Hoard@@@Hoard@@VBigHeap@2@@HL@@QAE@XZ
??0?$IgnoreInvalidFree@V?$HybridHeap@$0HPMA@V?$ThreadPoolHeap@$0EAA@$0IA@VPerThreadHoardHeap@Hoard@@@Hoard@@VBigHeap@2@@HL@@@Hoard@@QAE@XZ
??0?$LockMallocHeap@VSmallHeap@Hoard@@@Hoard@@QAE@XZ
??0?$LockedHeap@VWinLockType@HL@@V?$AddHeaderHeap@V?$HoardSuperblock@VWinLockType@HL@@$0BAAAA@VBigHeap@Hoard@@@Hoard@@$0BAAAA@V?$AlignedMmap@$0BAAAA@@2@@Hoard@@@HL@@QAE@XZ
??0?$LockedHeap@VWinLockType@HL@@V?$FixedRequestHeap@$0BAAAA@V?$SuperblockStore@$0BAAAA@@Hoard@@@Hoard@@@HL@@QAE@XZ
??0?$ManageOneSuperblock@V?$EmptyClass@V?$HoardSuperblock@VWinLockType@HL@@$0BAAAA@V?$ProcessHeap@$0BAAAA@$07VWinLockType@HL@@VbogusThresholdFunctionClass@?$GlobalHeap@$0BAAAA@$07VWinLockType@HL@@@Hoard@@@Hoard@@@Hoard@@$07@Hoard@@@Hoard@@QAE@XZ
??0?$ManageOneSuperblock@V?$EmptyClass@V?$HoardSuperblock@VWinLockType@HL@@$0BAAAA@VSmallHeap@Hoard@@@Hoard@@$07@Hoard@@@Hoard@@QAE@XZ
??0?$MyHashMap@PAXIVSourceHeap@?$AlignedMmapInstance@$0BAAAA@@Hoard@@@HL@@QAE@H@Z
??0?$ProcessHeap@$0BAAAA@$07VWinLockType@HL@@VbogusThresholdFunctionClass@?$GlobalHeap@$0BAAAA@$07VWinLockType@HL@@@Hoard@@@Hoard@@QAE@XZ
??0?$RedirectFree@V?$LockMallocHeap@VSmallHeap@Hoard@@@Hoard@@V?$HoardSuperblock@VWinLockType@HL@@$0BAAAA@VSmallHeap@Hoard@@@2@@Hoard@@QAE@XZ
??0?$SuperblockStore@$0BAAAA@@Hoard@@QAE@XZ
??0?$ThreadLocalAllocationBuffer@$0DH@$1?getSizeClass@?$bins@V?$HoardSuperblockHeader@VWinLockType@HL@@$0BAAAA@VSmallHeap@Hoard@@@Hoard@@$0BAAAA@@HL@@SAHI@Z$1?getClassSize@23@SAIH@Z$0BAA@$0EAAAA@V?$HoardSuperblock@VWinLockType@HL@@$0BAAAA@VSmallHeap@Hoard@@@Hoard@@$0BAAAA@VHoardHeapType@6@@Hoard@@QAE@PAVHoardHeapType@1@@Z
??0?$ThreadPoolHeap@$0EAA@$0IA@VPerThreadHoardHeap@Hoard@@@Hoard@@QAE@XZ
??0BigHeap@Hoard@@QAE@XZ
??0DLList@HL@@QAE@XZ
??0Entry@FreeSLList@@QAE@XZ
??0FreeSLList@@QAE@XZ
??0HoardHeapType@Hoard@@QAE@XZ
??0ListNode@?$MyHashMap@PAXIVSourceHeap@?$AlignedMmapInstance@$0BAAAA@@Hoard@@@HL@@QAE@XZ
??0PerThreadHoardHeap@Hoard@@QAE@XZ
??0SmallHeap@Hoard@@QAE@XZ
??0SourceHeap@?$AlignedMmapInstance@$0BAAAA@@Hoard@@QAE@XZ
??0Statistics@Hoard@@QAE@XZ
??0TLAB@Hoard@@QAE@PAVHoardHeapType@1@@Z
??0WinLockType@HL@@QAE@XZ
??0bad_alloc@std@@QAE@ABV01@@Z
??0bad_alloc@std@@QAE@XZ
??1?$ANSIWrapper@V?$IgnoreInvalidFree@V?$HybridHeap@$0HPMA@V?$ThreadPoolHeap@$0EAA@$0IA@VPerThreadHoardHeap@Hoard@@@Hoard@@VBigHeap@2@@HL@@@Hoard@@@HL@@QAE@XZ
??1?$AlignedSuperblockHeap@VWinLockType@HL@@$0BAAAA@@Hoard@@QAE@XZ
??1?$AlignedSuperblockHeapHelper@VWinLockType@HL@@$0BAAAA@@Hoard@@QAE@XZ
??1?$Array@$0IA@VPerThreadHoardHeap@Hoard@@@Hoard@@QAE@XZ
??1?$BaseHoardManager@V?$HoardSuperblock@VWinLockType@HL@@$0BAAAA@V?$ProcessHeap@$0BAAAA@$07VWinLockType@HL@@VbogusThresholdFunctionClass@?$GlobalHeap@$0BAAAA@$07VWinLockType@HL@@@Hoard@@@Hoard@@@Hoard@@@@UAE@XZ
??1?$BaseHoardManager@V?$HoardSuperblock@VWinLockType@HL@@$0BAAAA@VSmallHeap@Hoard@@@Hoard@@@@UAE@XZ
??1?$Check@V?$EmptyClass@V?$HoardSuperblock@VWinLockType@HL@@$0BAAAA@V?$ProcessHeap@$0BAAAA@$07VWinLockType@HL@@VbogusThresholdFunctionClass@?$GlobalHeap@$0BAAAA@$07VWinLockType@HL@@@Hoard@@@Hoard@@@Hoard@@$07@Hoard@@VMyChecker@12@@@QAE@XZ
??1?$Check@V?$EmptyClass@V?$HoardSuperblock@VWinLockType@HL@@$0BAAAA@VSmallHeap@Hoard@@@Hoard@@$07@Hoard@@VMyChecker@12@@@QAE@XZ
??1?$Check@V?$HoardManager@V?$AlignedSuperblockHeap@VWinLockType@HL@@$0BAAAA@@Hoard@@V?$EmptyHoardManager@V?$HoardSuperblock@VWinLockType@HL@@$0BAAAA@V?$ProcessHeap@$0BAAAA@$07VWinLockType@HL@@VbogusThresholdFunctionClass@?$GlobalHeap@$0BAAAA@$07VWinLockType@HL@@@Hoard@@@Hoard@@@Hoard@@@@V?$HoardSuperblock@VWinLockType@HL@@$0BAAAA@V?$ProcessHeap@$0BAAAA@$07VWinLockType@HL@@VbogusThresholdFunctionClass@?$GlobalHeap@$0BAAAA@$07VWinLockType@HL@@@Hoard@@@Hoard@@@2@$07VWinLockType@HL@@VbogusThresholdFunctionClass@?$GlobalHeap@$0BAAAA@$07VWinLockType@HL@@@2@V?$ProcessHeap@$0BAAAA@$07VWinLockType@HL@@VbogusThresholdFunctionClass@?$GlobalHeap@$0BAAAA@$07VWinLockType@HL@@@Hoard@@@2@@Hoard@@VsanityCheck@12@@@QAE@XZ
??1?$Check@V?$HoardManager@V?$AlignedSuperblockHeap@VWinLockType@HL@@$0BAAAA@@Hoard@@V?$GlobalHeap@$0BAAAA@$07VWinLockType@HL@@@2@V?$HoardSuperblock@VWinLockType@HL@@$0BAAAA@VSmallHeap@Hoard@@@2@$07VWinLockType@HL@@VhoardThresholdFunctionClass@2@VSmallHeap@2@@Hoard@@VsanityCheck@12@@@QAE@XZ
??1?$ConformantHeap@V?$HoardManager@V?$AlignedSuperblockHeap@VWinLockType@HL@@$0BAAAA@@Hoard@@V?$EmptyHoardManager@V?$HoardSuperblock@VWinLockType@HL@@$0BAAAA@V?$ProcessHeap@$0BAAAA@$07VWinLockType@HL@@VbogusThresholdFunctionClass@?$GlobalHeap@$0BAAAA@$07VWinLockType@HL@@@Hoard@@@Hoard@@@Hoard@@@@V?$HoardSuperblock@VWinLockType@HL@@$0BAAAA@V?$ProcessHeap@$0BAAAA@$07VWinLockType@HL@@VbogusThresholdFunctionClass@?$GlobalHeap@$0BAAAA@$07VWinLockType@HL@@@Hoard@@@Hoard@@@2@$07VWinLockType@HL@@VbogusThresholdFunctionClass@?$GlobalHeap@$0BAAAA@$07VWinLockType@HL@@@2@V?$ProcessHeap@$0BAAAA@$07VWinLockType@HL@@VbogusThresholdFunctionClass@?$GlobalHeap@$0BAAAA@$07VWinLockType@HL@@@Hoard@@@2@@Hoard@@@Hoard@@UAE@XZ
??1?$ConformantHeap@V?$HoardManager@V?$AlignedSuperblockHeap@VWinLockType@HL@@$0BAAAA@@Hoard@@V?$GlobalHeap@$0BAAAA@$07VWinLockType@HL@@@2@V?$HoardSuperblock@VWinLockType@HL@@$0BAAAA@VSmallHeap@Hoard@@@2@$07VWinLockType@HL@@VhoardThresholdFunctionClass@2@VSmallHeap@2@@Hoard@@@Hoard@@UAE@XZ
??1?$ConformantHeap@V?$LockedHeap@VWinLockType@HL@@V?$AddHeaderHeap@V?$HoardSuperblock@VWinLockType@HL@@$0BAAAA@VBigHeap@Hoard@@@Hoard@@$0BAAAA@V?$AlignedMmap@$0BAAAA@@2@@Hoard@@@HL@@@Hoard@@QAE@XZ
??1?$ConformantHeap@V?$LockedHeap@VWinLockType@HL@@V?$FixedRequestHeap@$0BAAAA@V?$SuperblockStore@$0BAAAA@@Hoard@@@Hoard@@@HL@@@Hoard@@QAE@XZ
??1?$EmptyHoardManager@V?$HoardSuperblock@VWinLockType@HL@@$0BAAAA@V?$ProcessHeap@$0BAAAA@$07VWinLockType@HL@@VbogusThresholdFunctionClass@?$GlobalHeap@$0BAAAA@$07VWinLockType@HL@@@Hoard@@@Hoard@@@Hoard@@@@UAE@XZ
??1?$Guard@VSmallHeap@Hoard@@@HL@@QAE@XZ
??1?$Guard@VWinLockType@HL@@@HL@@QAE@XZ
??1?$HeapManager@VWinLockType@HL@@V?$HoardHeap@$0EAA@$0IA@@Hoard@@@Hoard@@QAE@XZ
??1?$HoardHeap@$0EAA@$0IA@@Hoard@@QAE@XZ
??1?$HoardManager@V?$AlignedSuperblockHeap@VWinLockType@HL@@$0BAAAA@@Hoard@@V?$EmptyHoardManager@V?$HoardSuperblock@VWinLockType@HL@@$0BAAAA@V?$ProcessHeap@$0BAAAA@$07VWinLockType@HL@@VbogusThresholdFunctionClass@?$GlobalHeap@$0BAAAA@$07VWinLockType@HL@@@Hoard@@@Hoard@@@Hoard@@@@V?$HoardSuperblock@VWinLockType@HL@@$0BAAAA@V?$ProcessHeap@$0BAAAA@$07VWinLockType@HL@@VbogusThresholdFunctionClass@?$GlobalHeap@$0BAAAA@$07VWinLockType@HL@@@Hoard@@@Hoard@@@2@$07VWinLockType@HL@@VbogusThresholdFunctionClass@?$GlobalHeap@$0BAAAA@$07VWinLockType@HL@@@2@V?$ProcessHeap@$0BAAAA@$07VWinLockType@HL@@VbogusThresholdFunctionClass@?$GlobalHeap@$0BAAAA@$07VWinLockType@HL@@@Hoard@@@2@@Hoard@@UAE@XZ
??1?$HoardManager@V?$AlignedSuperblockHeap@VWinLockType@HL@@$0BAAAA@@Hoard@@V?$GlobalHeap@$0BAAAA@$07VWinLockType@HL@@@2@V?$HoardSuperblock@VWinLockType@HL@@$0BAAAA@VSmallHeap@Hoard@@@2@$07VWinLockType@HL@@VhoardThresholdFunctionClass@2@VSmallHeap@2@@Hoard@@UAE@XZ
??1?$HoardSuperblockHeader@VWinLockType@HL@@$0BAAAA@VSmallHeap@Hoard@@@Hoard@@QAE@XZ
??1?$HybridHeap@$0HPMA@V?$ThreadPoolHeap@$0EAA@$0IA@VPerThreadHoardHeap@Hoard@@@Hoard@@VBigHeap@2@@HL@@QAE@XZ
??1?$IgnoreInvalidFree@V?$HybridHeap@$0HPMA@V?$ThreadPoolHeap@$0EAA@$0IA@VPerThreadHoardHeap@Hoard@@@Hoard@@VBigHeap@2@@HL@@@Hoard@@QAE@XZ
??1?$LockMallocHeap@VSmallHeap@Hoard@@@Hoard@@UAE@XZ
??1?$LockedHeap@VWinLockType@HL@@V?$AddHeaderHeap@V?$HoardSuperblock@VWinLockType@HL@@$0BAAAA@VBigHeap@Hoard@@@Hoard@@$0BAAAA@V?$AlignedMmap@$0BAAAA@@2@@Hoard@@@HL@@QAE@XZ
??1?$LockedHeap@VWinLockType@HL@@V?$FixedRequestHeap@$0BAAAA@V?$SuperblockStore@$0BAAAA@@Hoard@@@Hoard@@@HL@@QAE@XZ
??1?$ProcessHeap@$0BAAAA@$07VWinLockType@HL@@VbogusThresholdFunctionClass@?$GlobalHeap@$0BAAAA@$07VWinLockType@HL@@@Hoard@@@Hoard@@UAE@XZ
??1?$RedirectFree@V?$LockMallocHeap@VSmallHeap@Hoard@@@Hoard@@V?$HoardSuperblock@VWinLockType@HL@@$0BAAAA@VSmallHeap@Hoard@@@2@@Hoard@@QAE@XZ
??1?$ThreadLocalAllocationBuffer@$0DH@$1?getSizeClass@?$bins@V?$HoardSuperblockHeader@VWinLockType@HL@@$0BAAAA@VSmallHeap@Hoard@@@Hoard@@$0BAAAA@@HL@@SAHI@Z$1?getClassSize@23@SAIH@Z$0BAA@$0EAAAA@V?$HoardSuperblock@VWinLockType@HL@@$0BAAAA@VSmallHeap@Hoard@@@Hoard@@$0BAAAA@VHoardHeapType@6@@Hoard@@QAE@XZ
??1?$ThreadPoolHeap@$0EAA@$0IA@VPerThreadHoardHeap@Hoard@@@Hoard@@QAE@XZ
??1BigHeap@Hoard@@QAE@XZ
??1PerThreadHoardHeap@Hoard@@QAE@XZ
??1SmallHeap@Hoard@@UAE@XZ
??1WinLockType@HL@@QAE@XZ
??1bad_alloc@std@@UAE@XZ
??2@YAPAXI@Z
??2@YAPAXIABUnothrow_t@std@@@Z
??2@YAPAXIPAX@Z
??3@YAXPAX@Z
??R?$Array@$09PAV?$HoardSuperblock@VWinLockType@HL@@$0BAAAA@V?$ProcessHeap@$0BAAAA@$07VWinLockType@HL@@VbogusThresholdFunctionClass@?$GlobalHeap@$0BAAAA@$07VWinLockType@HL@@@Hoard@@@Hoard@@@Hoard@@@Hoard@@QAEAAPAV?$HoardSuperblock@VWinLockType@HL@@$0BAAAA@V?$ProcessHeap@$0BAAAA@$07VWinLockType@HL@@VbogusThresholdFunctionClass@?$GlobalHeap@$0BAAAA@$07VWinLockType@HL@@@Hoard@@@Hoard@@@1@H@Z
??R?$Array@$09PAV?$HoardSuperblock@VWinLockType@HL@@$0BAAAA@VSmallHeap@Hoard@@@Hoard@@@Hoard@@QAEAAPAV?$HoardSuperblock@VWinLockType@HL@@$0BAAAA@VSmallHeap@Hoard@@@1@H@Z
??R?$Array@$0DH@V?$ManageOneSuperblock@V?$EmptyClass@V?$HoardSuperblock@VWinLockType@HL@@$0BAAAA@V?$ProcessHeap@$0BAAAA@$07VWinLockType@HL@@VbogusThresholdFunctionClass@?$GlobalHeap@$0BAAAA@$07VWinLockType@HL@@@Hoard@@@Hoard@@@Hoard@@$07@Hoard@@@Hoard@@@Hoard@@QAEAAV?$ManageOneSuperblock@V?$EmptyClass@V?$HoardSuperblock@VWinLockType@HL@@$0BAAAA@V?$ProcessHeap@$0BAAAA@$07VWinLockType@HL@@VbogusThresholdFunctionClass@?$GlobalHeap@$0BAAAA@$07VWinLockType@HL@@@Hoard@@@Hoard@@@Hoard@@$07@Hoard@@@1@H@Z
??R?$Array@$0DH@V?$ManageOneSuperblock@V?$EmptyClass@V?$HoardSuperblock@VWinLockType@HL@@$0BAAAA@VSmallHeap@Hoard@@@Hoard@@$07@Hoard@@@Hoard@@@Hoard@@QAEAAV?$ManageOneSuperblock@V?$EmptyClass@V?$HoardSuperblock@VWinLockType@HL@@$0BAAAA@VSmallHeap@Hoard@@@Hoard@@$07@Hoard@@@1@H@Z
??R?$Array@$0DH@VDLList@HL@@@Hoard@@QAEAAVDLList@HL@@H@Z
??R?$Array@$0DH@VStatistics@Hoard@@@Hoard@@QAEAAVStatistics@1@H@Z
??R?$Array@$0EAA@H@Hoard@@QAEAAHH@Z
??R?$Array@$0EAA@H@Hoard@@QBEABHH@Z
??R?$Array@$0IA@H@Hoard@@QAEAAHH@Z
??R?$Array@$0IA@H@Hoard@@QBEABHH@Z
??R?$Array@$0IA@VPerThreadHoardHeap@Hoard@@@Hoard@@QAEAAVPerThreadHoardHeap@1@H@Z
??R?$ExactlyOne@V?$AlignedMmapInstance@$0BAAAA@@Hoard@@@Hoard@@QAEAAV?$AlignedMmapInstance@$0BAAAA@@1@XZ
??_G?$BaseHoardManager@V?$HoardSuperblock@VWinLockType@HL@@$0BAAAA@V?$ProcessHeap@$0BAAAA@$07VWinLockType@HL@@VbogusThresholdFunctionClass@?$GlobalHeap@$0BAAAA@$07VWinLockType@HL@@@Hoard@@@Hoard@@@Hoard@@@@UAEPAXI@Z
??_G?$BaseHoardManager@V?$HoardSuperblock@VWinLockType@HL@@$0BAAAA@VSmallHeap@Hoard@@@Hoard@@@@UAEPAXI@Z
??_G?$ConformantHeap@V?$HoardManager@V?$AlignedSuperblockHeap@VWinLockType@HL@@$0BAAAA@@Hoard@@V?$EmptyHoardManager@V?$HoardSuperblock@VWinLockType@HL@@$0BAAAA@V?$ProcessHeap@$0BAAAA@$07VWinLockType@HL@@VbogusThresholdFunctionClass@?$GlobalHeap@$0BAAAA@$07VWinLockType@HL@@@Hoard@@@Hoard@@@Hoard@@@@V?$HoardSuperblock@VWinLockType@HL@@$0BAAAA@V?$ProcessHeap@$0BAAAA@$07VWinLockType@HL@@VbogusThresholdFunctionClass@?$GlobalHeap@$0BAAAA@$07VWinLockType@HL@@@Hoard@@@Hoard@@@2@$07VWinLockType@HL@@VbogusThresholdFunctionClass@?$GlobalHeap@$0BAAAA@$07VWinLockType@HL@@@2@V?$ProcessHeap@$0BAAAA@$07VWinLockType@HL@@VbogusThresholdFunctionClass@?$GlobalHeap@$0BAAAA@$07VWinLockType@HL@@@Hoard@@@2@@Hoard@@@Hoard@@UAEPAXI@Z
??_G?$ConformantHeap@V?$HoardManager@V?$AlignedSuperblockHeap@VWinLockType@HL@@$0BAAAA@@Hoard@@V?$GlobalHeap@$0BAAAA@$07VWinLockType@HL@@@2@V?$HoardSuperblock@VWinLockType@HL@@$0BAAAA@VSmallHeap@Hoard@@@2@$07VWinLockType@HL@@VhoardThresholdFunctionClass@2@VSmallHeap@2@@Hoard@@@Hoard@@UAEPAXI@Z
??_G?$EmptyHoardManager@V?$HoardSuperblock@VWinLockType@HL@@$0BAAAA@V?$ProcessHeap@$0BAAAA@$07VWinLockType@HL@@VbogusThresholdFunctionClass@?$GlobalHeap@$0BAAAA@$07VWinLockType@HL@@@Hoard@@@Hoard@@@Hoard@@@@UAEPAXI@Z
??_G?$HoardManager@V?$AlignedSuperblockHeap@VWinLockType@HL@@$0BAAAA@@Hoard@@V?$EmptyHoardManager@V?$HoardSuperblock@VWinLockType@HL@@$0BAAAA@V?$ProcessHeap@$0BAAAA@$07VWinLockType@HL@@VbogusThresholdFunctionClass@?$GlobalHeap@$0BAAAA@$07VWinLockType@HL@@@Hoard@@@Hoard@@@Hoard@@@@V?$HoardSuperblock@VWinLockType@HL@@$0BAAAA@V?$ProcessHeap@$0BAAAA@$07VWinLockType@HL@@VbogusThresholdFunctionClass@?$GlobalHeap@$0BAAAA@$07VWinLockType@HL@@@Hoard@@@Hoard@@@2@$07VWinLockType@HL@@VbogusThresholdFunctionClass@?$GlobalHeap@$0BAAAA@$07VWinLockType@HL@@@2@V?$ProcessHeap@$0BAAAA@$07VWinLockType@HL@@VbogusThresholdFunctionClass@?$GlobalHeap@$0BAAAA@$07VWinLockType@HL@@@Hoard@@@2@@Hoard@@UAEPAXI@Z
??_G?$HoardManager@V?$AlignedSuperblockHeap@VWinLockType@HL@@$0BAAAA@@Hoard@@V?$GlobalHeap@$0BAAAA@$07VWinLockType@HL@@@2@V?$HoardSuperblock@VWinLockType@HL@@$0BAAAA@VSmallHeap@Hoard@@@2@$07VWinLockType@HL@@VhoardThresholdFunctionClass@2@VSmallHeap@2@@Hoard@@UAEPAXI@Z
??_G?$LockMallocHeap@VSmallHeap@Hoard@@@Hoard@@UAEPAXI@Z
??_G?$ProcessHeap@$0BAAAA@$07VWinLockType@HL@@VbogusThresholdFunctionClass@?$GlobalHeap@$0BAAAA@$07VWinLockType@HL@@@Hoard@@@Hoard@@UAEPAXI@Z
??_GSmallHeap@Hoard@@UAEPAXI@Z
??_Gbad_alloc@std@@UAEPAXI@Z
??_H@YGXPAXIHP6EPAX0@Z@Z
??_I@YGXPAXIHP6EX0@Z@Z
??_U@YAPAXI@Z
??_U@YAPAXIABUnothrow_t@std@@@Z
??_V@YAXPAX@Z
?addStatsSuperblock@?$HoardManager@V?$AlignedSuperblockHeap@VWinLockType@HL@@$0BAAAA@@Hoard@@V?$EmptyHoardManager@V?$HoardSuperblock@VWinLockType@HL@@$0BAAAA@V?$ProcessHeap@$0BAAAA@$07VWinLockType@HL@@VbogusThresholdFunctionClass@?$GlobalHeap@$0BAAAA@$07VWinLockType@HL@@@Hoard@@@Hoard@@@Hoard@@@@V?$HoardSuperblock@VWinLockType@HL@@$0BAAAA@V?$ProcessHeap@$0BAAAA@$07VWinLockType@HL@@VbogusThresholdFunctionClass@?$GlobalHeap@$0BAAAA@$07VWinLockType@HL@@@Hoard@@@Hoard@@@2@$07VWinLockType@HL@@VbogusThresholdFunctionClass@?$GlobalHeap@$0BAAAA@$07VWinLockType@HL@@@2@V?$ProcessHeap@$0BAAAA@$07VWinLockType@HL@@VbogusThresholdFunctionClass@?$GlobalHeap@$0BAAAA@$07VWinLockType@HL@@@Hoard@@@2@@Hoard@@AAEXPAV?$HoardSuperblock@VWinLockType@HL@@$0BAAAA@V?$ProcessHeap@$0BAAAA@$07VWinLockType@HL@@VbogusThresholdFunctionClass@?$GlobalHeap@$0BAAAA@$07VWinLockType@HL@@@Hoard@@@Hoard@@@2@H@Z
?addStatsSuperblock@?$HoardManager@V?$AlignedSuperblockHeap@VWinLockType@HL@@$0BAAAA@@Hoard@@V?$GlobalHeap@$0BAAAA@$07VWinLockType@HL@@@2@V?$HoardSuperblock@VWinLockType@HL@@$0BAAAA@VSmallHeap@Hoard@@@2@$07VWinLockType@HL@@VhoardThresholdFunctionClass@2@VSmallHeap@2@@Hoard@@AAEXPAV?$HoardSuperblock@VWinLockType@HL@@$0BAAAA@VSmallHeap@Hoard@@@2@H@Z
?align@?$ANSIWrapper@V?$IgnoreInvalidFree@V?$HybridHeap@$0HPMA@V?$ThreadPoolHeap@$0EAA@$0IA@VPerThreadHoardHeap@Hoard@@@Hoard@@VBigHeap@2@@HL@@@Hoard@@@HL@@CAII@Z
?align@?$AlignedMmapInstance@$0BAAAA@@Hoard@@CAPADPAD@Z
?chooseZero@?$HeapManager@VWinLockType@HL@@V?$HoardHeap@$0EAA@$0IA@@Hoard@@@Hoard@@QAEXXZ
?clear@?$HoardSuperblockHeader@VWinLockType@HL@@$0BAAAA@V?$ProcessHeap@$0BAAAA@$07VWinLockType@HL@@VbogusThresholdFunctionClass@?$GlobalHeap@$0BAAAA@$07VWinLockType@HL@@@Hoard@@@Hoard@@@Hoard@@QAEXXZ
?clear@?$HoardSuperblockHeader@VWinLockType@HL@@$0BAAAA@VSmallHeap@Hoard@@@Hoard@@QAEXXZ
?clear@?$ThreadLocalAllocationBuffer@$0DH@$1?getSizeClass@?$bins@V?$HoardSuperblockHeader@VWinLockType@HL@@$0BAAAA@VSmallHeap@Hoard@@@Hoard@@$0BAAAA@@HL@@SAHI@Z$1?getClassSize@23@SAIH@Z$0BAA@$0EAAAA@V?$HoardSuperblock@VWinLockType@HL@@$0BAAAA@VSmallHeap@Hoard@@@Hoard@@$0BAAAA@VHoardHeapType@6@@Hoard@@QAEXXZ
?clear@DLList@HL@@QAEXXZ
?clear@FreeSLList@@QAEXXZ
?computeNumProcessors@CPUInfo@HL@@SAHXZ
?decStatsSuperblock@?$HoardManager@V?$AlignedSuperblockHeap@VWinLockType@HL@@$0BAAAA@@Hoard@@V?$EmptyHoardManager@V?$HoardSuperblock@VWinLockType@HL@@$0BAAAA@V?$ProcessHeap@$0BAAAA@$07VWinLockType@HL@@VbogusThresholdFunctionClass@?$GlobalHeap@$0BAAAA@$07VWinLockType@HL@@@Hoard@@@Hoard@@@Hoard@@@@V?$HoardSuperblock@VWinLockType@HL@@$0BAAAA@V?$ProcessHeap@$0BAAAA@$07VWinLockType@HL@@VbogusThresholdFunctionClass@?$GlobalHeap@$0BAAAA@$07VWinLockType@HL@@@Hoard@@@Hoard@@@2@$07VWinLockType@HL@@VbogusThresholdFunctionClass@?$GlobalHeap@$0BAAAA@$07VWinLockType@HL@@@2@V?$ProcessHeap@$0BAAAA@$07VWinLockType@HL@@VbogusThresholdFunctionClass@?$GlobalHeap@$0BAAAA@$07VWinLockType@HL@@@Hoard@@@2@@Hoard@@AAEXPAV?$HoardSuperblock@VWinLockType@HL@@$0BAAAA@V?$ProcessHeap@$0BAAAA@$07VWinLockType@HL@@VbogusThresholdFunctionClass@?$GlobalHeap@$0BAAAA@$07VWinLockType@HL@@@Hoard@@@Hoard@@@2@H@Z
?erase@?$MyHashMap@PAXIVSourceHeap@?$AlignedMmapInstance@$0BAAAA@@Hoard@@@HL@@QAEXPAX@Z
?findUnusedHeap@?$HeapManager@VWinLockType@HL@@V?$HoardHeap@$0EAA@$0IA@@Hoard@@@Hoard@@QAEHXZ
?free@?$ANSIWrapper@V?$IgnoreInvalidFree@V?$HybridHeap@$0HPMA@V?$ThreadPoolHeap@$0EAA@$0IA@VPerThreadHoardHeap@Hoard@@@Hoard@@VBigHeap@2@@HL@@@Hoard@@@HL@@QAEXPAX@Z
?free@?$AddHeaderHeap@V?$HoardSuperblock@VWinLockType@HL@@$0BAAAA@VBigHeap@Hoard@@@Hoard@@$0BAAAA@V?$AlignedMmap@$0BAAAA@@2@@Hoard@@QAEXPAX@Z
?free@?$AlignedMmap@$0BAAAA@@Hoard@@QAEXPAX@Z
?free@?$AlignedMmapInstance@$0BAAAA@@Hoard@@QAEXPAX@Z
?free@?$BaseHoardManager@V?$HoardSuperblock@VWinLockType@HL@@$0BAAAA@V?$ProcessHeap@$0BAAAA@$07VWinLockType@HL@@VbogusThresholdFunctionClass@?$GlobalHeap@$0BAAAA@$07VWinLockType@HL@@@Hoard@@@Hoard@@@Hoard@@@@UAEXPAX@Z
?free@?$BaseHoardManager@V?$HoardSuperblock@VWinLockType@HL@@$0BAAAA@VSmallHeap@Hoard@@@Hoard@@@@UAEXPAX@Z
?free@?$EmptyClass@V?$HoardSuperblock@VWinLockType@HL@@$0BAAAA@V?$ProcessHeap@$0BAAAA@$07VWinLockType@HL@@VbogusThresholdFunctionClass@?$GlobalHeap@$0BAAAA@$07VWinLockType@HL@@@Hoard@@@Hoard@@@Hoard@@$07@Hoard@@QAEXPAX@Z
?free@?$EmptyClass@V?$HoardSuperblock@VWinLockType@HL@@$0BAAAA@VSmallHeap@Hoard@@@Hoard@@$07@Hoard@@QAEXPAX@Z
?free@?$EmptyHoardManager@V?$HoardSuperblock@VWinLockType@HL@@$0BAAAA@V?$ProcessHeap@$0BAAAA@$07VWinLockType@HL@@VbogusThresholdFunctionClass@?$GlobalHeap@$0BAAAA@$07VWinLockType@HL@@@Hoard@@@Hoard@@@Hoard@@@@UAEXPAX@Z
?free@?$FreelistHeap@V?$BumpAlloc@$0BAAAA@VMmapAlloc@Hoard@@@Hoard@@@HL@@QAEXPAX@Z
?free@?$HoardManager@V?$AlignedSuperblockHeap@VWinLockType@HL@@$0BAAAA@@Hoard@@V?$EmptyHoardManager@V?$HoardSuperblock@VWinLockType@HL@@$0BAAAA@V?$ProcessHeap@$0BAAAA@$07VWinLockType@HL@@VbogusThresholdFunctionClass@?$GlobalHeap@$0BAAAA@$07VWinLockType@HL@@@Hoard@@@Hoard@@@Hoard@@@@V?$HoardSuperblock@VWinLockType@HL@@$0BAAAA@V?$ProcessHeap@$0BAAAA@$07VWinLockType@HL@@VbogusThresholdFunctionClass@?$GlobalHeap@$0BAAAA@$07VWinLockType@HL@@@Hoard@@@Hoard@@@2@$07VWinLockType@HL@@VbogusThresholdFunctionClass@?$GlobalHeap@$0BAAAA@$07VWinLockType@HL@@@2@V?$ProcessHeap@$0BAAAA@$07VWinLockType@HL@@VbogusThresholdFunctionClass@?$GlobalHeap@$0BAAAA@$07VWinLockType@HL@@@Hoard@@@2@@Hoard@@UAEXPAX@Z
?free@?$HoardManager@V?$AlignedSuperblockHeap@VWinLockType@HL@@$0BAAAA@@Hoard@@V?$GlobalHeap@$0BAAAA@$07VWinLockType@HL@@@2@V?$HoardSuperblock@VWinLockType@HL@@$0BAAAA@VSmallHeap@Hoard@@@2@$07VWinLockType@HL@@VhoardThresholdFunctionClass@2@VSmallHeap@2@@Hoard@@UAEXPAX@Z
?free@?$HoardSuperblock@VWinLockType@HL@@$0BAAAA@V?$ProcessHeap@$0BAAAA@$07VWinLockType@HL@@VbogusThresholdFunctionClass@?$GlobalHeap@$0BAAAA@$07VWinLockType@HL@@@Hoard@@@Hoard@@@Hoard@@QAEXPAX@Z
?free@?$HoardSuperblock@VWinLockType@HL@@$0BAAAA@VSmallHeap@Hoard@@@Hoard@@QAEXPAX@Z
?free@?$HoardSuperblockHeader@VWinLockType@HL@@$0BAAAA@V?$ProcessHeap@$0BAAAA@$07VWinLockType@HL@@VbogusThresholdFunctionClass@?$GlobalHeap@$0BAAAA@$07VWinLockType@HL@@@Hoard@@@Hoard@@@Hoard@@QAEXPAX@Z
?free@?$HoardSuperblockHeader@VWinLockType@HL@@$0BAAAA@VSmallHeap@Hoard@@@Hoard@@QAEXPAX@Z
?free@?$HybridHeap@$0HPMA@V?$ThreadPoolHeap@$0EAA@$0IA@VPerThreadHoardHeap@Hoard@@@Hoard@@VBigHeap@2@@HL@@QAEXPAX@Z
?free@?$IgnoreInvalidFree@V?$HybridHeap@$0HPMA@V?$ThreadPoolHeap@$0EAA@$0IA@VPerThreadHoardHeap@Hoard@@@Hoard@@VBigHeap@2@@HL@@@Hoard@@QAEXPAX@Z
?free@?$LockedHeap@VWinLockType@HL@@V?$AddHeaderHeap@V?$HoardSuperblock@VWinLockType@HL@@$0BAAAA@VBigHeap@Hoard@@@Hoard@@$0BAAAA@V?$AlignedMmap@$0BAAAA@@2@@Hoard@@@HL@@QAEXPAX@Z
?free@?$ManageOneSuperblock@V?$EmptyClass@V?$HoardSuperblock@VWinLockType@HL@@$0BAAAA@V?$ProcessHeap@$0BAAAA@$07VWinLockType@HL@@VbogusThresholdFunctionClass@?$GlobalHeap@$0BAAAA@$07VWinLockType@HL@@@Hoard@@@Hoard@@@Hoard@@$07@Hoard@@@Hoard@@QAEXPAX@Z
?free@?$ManageOneSuperblock@V?$EmptyClass@V?$HoardSuperblock@VWinLockType@HL@@$0BAAAA@VSmallHeap@Hoard@@@Hoard@@$07@Hoard@@@Hoard@@QAEXPAX@Z
?free@?$RedirectFree@V?$LockMallocHeap@VSmallHeap@Hoard@@@Hoard@@V?$HoardSuperblock@VWinLockType@HL@@$0BAAAA@VSmallHeap@Hoard@@@2@@Hoard@@SAXPAX@Z
?free@?$ThreadLocalAllocationBuffer@$0DH@$1?getSizeClass@?$bins@V?$HoardSuperblockHeader@VWinLockType@HL@@$0BAAAA@VSmallHeap@Hoard@@@Hoard@@$0BAAAA@@HL@@SAHI@Z$1?getClassSize@23@SAIH@Z$0BAA@$0EAAAA@V?$HoardSuperblock@VWinLockType@HL@@$0BAAAA@VSmallHeap@Hoard@@@Hoard@@$0BAAAA@VHoardHeapType@6@@Hoard@@QAEXPAX@Z
?free@?$ThreadPoolHeap@$0EAA@$0IA@VPerThreadHoardHeap@Hoard@@@Hoard@@QAEXPAX@Z
?freeListAlloc@?$HoardSuperblockHeader@VWinLockType@HL@@$0BAAAA@VSmallHeap@Hoard@@@Hoard@@AAEPAXXZ
?function@bogusThresholdFunctionClass@?$GlobalHeap@$0BAAAA@$07VWinLockType@HL@@@Hoard@@SA_NHHI@Z
?function@hoardThresholdFunctionClass@Hoard@@SA_NHHI@Z
?get@?$EmptyClass@V?$HoardSuperblock@VWinLockType@HL@@$0BAAAA@V?$ProcessHeap@$0BAAAA@$07VWinLockType@HL@@VbogusThresholdFunctionClass@?$GlobalHeap@$0BAAAA@$07VWinLockType@HL@@@Hoard@@@Hoard@@@Hoard@@$07@Hoard@@QAEPAV?$HoardSuperblock@VWinLockType@HL@@$0BAAAA@V?$ProcessHeap@$0BAAAA@$07VWinLockType@HL@@VbogusThresholdFunctionClass@?$GlobalHeap@$0BAAAA@$07VWinLockType@HL@@@Hoard@@@Hoard@@@2@XZ
?get@?$EmptyClass@V?$HoardSuperblock@VWinLockType@HL@@$0BAAAA@VSmallHeap@Hoard@@@Hoard@@$07@Hoard@@QAEPAV?$HoardSuperblock@VWinLockType@HL@@$0BAAAA@VSmallHeap@Hoard@@@2@XZ
?get@?$GlobalHeap@$0BAAAA@$07VWinLockType@HL@@@Hoard@@QAEPAV?$HoardSuperblock@VWinLockType@HL@@$0BAAAA@V?$GlobalHeap@$0BAAAA@$07VWinLockType@HL@@@Hoard@@@2@IPAX@Z
?get@?$HoardManager@V?$AlignedSuperblockHeap@VWinLockType@HL@@$0BAAAA@@Hoard@@V?$EmptyHoardManager@V?$HoardSuperblock@VWinLockType@HL@@$0BAAAA@V?$ProcessHeap@$0BAAAA@$07VWinLockType@HL@@VbogusThresholdFunctionClass@?$GlobalHeap@$0BAAAA@$07VWinLockType@HL@@@Hoard@@@Hoard@@@Hoard@@@@V?$HoardSuperblock@VWinLockType@HL@@$0BAAAA@V?$ProcessHeap@$0BAAAA@$07VWinLockType@HL@@VbogusThresholdFunctionClass@?$GlobalHeap@$0BAAAA@$07VWinLockType@HL@@@Hoard@@@Hoard@@@2@$07VWinLockType@HL@@VbogusThresholdFunctionClass@?$GlobalHeap@$0BAAAA@$07VWinLockType@HL@@@2@V?$ProcessHeap@$0BAAAA@$07VWinLockType@HL@@VbogusThresholdFunctionClass@?$GlobalHeap@$0BAAAA@$07VWinLockType@HL@@@Hoard@@@2@@Hoard@@QAEPAV?$HoardSuperblock@VWinLockType@HL@@$0BAAAA@V?$ProcessHeap@$0BAAAA@$07VWinLockType@HL@@VbogusThresholdFunctionClass@?$GlobalHeap@$0BAAAA@$07VWinLockType@HL@@@Hoard@@@Hoard@@@2@IPAV?$ProcessHeap@$0BAAAA@$07VWinLockType@HL@@VbogusThresholdFunctionClass@?$GlobalHeap@$0BAAAA@$07VWinLockType@HL@@@Hoard@@@2@@Z
?get@?$ManageOneSuperblock@V?$EmptyClass@V?$HoardSuperblock@VWinLockType@HL@@$0BAAAA@V?$ProcessHeap@$0BAAAA@$07VWinLockType@HL@@VbogusThresholdFunctionClass@?$GlobalHeap@$0BAAAA@$07VWinLockType@HL@@@Hoard@@@Hoard@@@Hoard@@$07@Hoard@@@Hoard@@QAEPAV?$HoardSuperblock@VWinLockType@HL@@$0BAAAA@V?$ProcessHeap@$0BAAAA@$07VWinLockType@HL@@VbogusThresholdFunctionClass@?$GlobalHeap@$0BAAAA@$07VWinLockType@HL@@@Hoard@@@Hoard@@@2@XZ
?get@?$ManageOneSuperblock@V?$EmptyClass@V?$HoardSuperblock@VWinLockType@HL@@$0BAAAA@VSmallHeap@Hoard@@@Hoard@@$07@Hoard@@@Hoard@@QAEPAV?$HoardSuperblock@VWinLockType@HL@@$0BAAAA@VSmallHeap@Hoard@@@2@XZ
?get@?$MyHashMap@PAXIVSourceHeap@?$AlignedMmapInstance@$0BAAAA@@Hoard@@@HL@@QAEIPAX@Z
?get@DLList@HL@@QAEPAVEntry@12@XZ
?get@FreeSLList@@QAEPAVEntry@1@XZ
?getAllocated@Statistics@Hoard@@QBEHXZ
?getAnotherSuperblock@?$HoardManager@V?$AlignedSuperblockHeap@VWinLockType@HL@@$0BAAAA@@Hoard@@V?$GlobalHeap@$0BAAAA@$07VWinLockType@HL@@@2@V?$HoardSuperblock@VWinLockType@HL@@$0BAAAA@VSmallHeap@Hoard@@@2@$07VWinLockType@HL@@VhoardThresholdFunctionClass@2@VSmallHeap@2@@Hoard@@QAEPAXI@Z
?getClassSize@?$bins@V?$HoardSuperblockHeader@VWinLockType@HL@@$0BAAAA@V?$ProcessHeap@$0BAAAA@$07VWinLockType@HL@@VbogusThresholdFunctionClass@?$GlobalHeap@$0BAAAA@$07VWinLockType@HL@@@Hoard@@@Hoard@@@Hoard@@$0BAAAA@@HL@@SAIH@Z
?getClassSize@?$bins@V?$HoardSuperblockHeader@VWinLockType@HL@@$0BAAAA@VSmallHeap@Hoard@@@Hoard@@$0BAAAA@@HL@@SAIH@Z
?getCustomHeap@@YAPAVTLAB@Hoard@@XZ
?getFullness@?$EmptyClass@V?$HoardSuperblock@VWinLockType@HL@@$0BAAAA@V?$ProcessHeap@$0BAAAA@$07VWinLockType@HL@@VbogusThresholdFunctionClass@?$GlobalHeap@$0BAAAA@$07VWinLockType@HL@@@Hoard@@@Hoard@@@Hoard@@$07@Hoard@@CAHPAV?$HoardSuperblock@VWinLockType@HL@@$0BAAAA@V?$ProcessHeap@$0BAAAA@$07VWinLockType@HL@@VbogusThresholdFunctionClass@?$GlobalHeap@$0BAAAA@$07VWinLockType@HL@@@Hoard@@@Hoard@@@2@@Z
?getFullness@?$EmptyClass@V?$HoardSuperblock@VWinLockType@HL@@$0BAAAA@VSmallHeap@Hoard@@@Hoard@@$07@Hoard@@CAHPAV?$HoardSuperblock@VWinLockType@HL@@$0BAAAA@VSmallHeap@Hoard@@@2@@Z
?getHeap@?$GlobalHeap@$0BAAAA@$07VWinLockType@HL@@@Hoard@@CAPAV?$ProcessHeap@$0BAAAA@$07VWinLockType@HL@@VbogusThresholdFunctionClass@?$GlobalHeap@$0BAAAA@$07VWinLockType@HL@@@Hoard@@@2@XZ
?getHeap@?$ThreadPoolHeap@$0EAA@$0IA@VPerThreadHoardHeap@Hoard@@@Hoard@@QAEAAVPerThreadHoardHeap@2@XZ
?getInUse@Statistics@Hoard@@QBEHXZ
?getInusemap@?$ThreadPoolHeap@$0EAA@$0IA@VPerThreadHoardHeap@Hoard@@@Hoard@@QBEHH@Z
?getNext@?$HoardSuperblock@VWinLockType@HL@@$0BAAAA@V?$ProcessHeap@$0BAAAA@$07VWinLockType@HL@@VbogusThresholdFunctionClass@?$GlobalHeap@$0BAAAA@$07VWinLockType@HL@@@Hoard@@@Hoard@@@Hoard@@QBEPAV12@XZ
?getNext@?$HoardSuperblock@VWinLockType@HL@@$0BAAAA@VSmallHeap@Hoard@@@Hoard@@QBEPAV12@XZ
?getNext@?$HoardSuperblockHeader@VWinLockType@HL@@$0BAAAA@V?$ProcessHeap@$0BAAAA@$07VWinLockType@HL@@VbogusThresholdFunctionClass@?$GlobalHeap@$0BAAAA@$07VWinLockType@HL@@@Hoard@@@Hoard@@@Hoard@@QBEPAV?$HoardSuperblock@VWinLockType@HL@@$0BAAAA@V?$ProcessHeap@$0BAAAA@$07VWinLockType@HL@@VbogusThresholdFunctionClass@?$GlobalHeap@$0BAAAA@$07VWinLockType@HL@@@Hoard@@@Hoard@@@2@XZ
?getNext@?$HoardSuperblockHeader@VWinLockType@HL@@$0BAAAA@VSmallHeap@Hoard@@@Hoard@@QBEPAV?$HoardSuperblock@VWinLockType@HL@@$0BAAAA@VSmallHeap@Hoard@@@2@XZ
?getNext@Entry@DLList@HL@@QBEPAV123@XZ
?getObject@?$HoardManager@V?$AlignedSuperblockHeap@VWinLockType@HL@@$0BAAAA@@Hoard@@V?$GlobalHeap@$0BAAAA@$07VWinLockType@HL@@@2@V?$HoardSuperblock@VWinLockType@HL@@$0BAAAA@VSmallHeap@Hoard@@@2@$07VWinLockType@HL@@VhoardThresholdFunctionClass@2@VSmallHeap@2@@Hoard@@AAEPAXHI@Z
?getObjectSize@?$HoardSuperblock@VWinLockType@HL@@$0BAAAA@VSmallHeap@Hoard@@@Hoard@@QBEIXZ
?getObjectSize@?$HoardSuperblockHeader@VWinLockType@HL@@$0BAAAA@VSmallHeap@Hoard@@@Hoard@@QBEIXZ
?getObjectsFree@?$HoardSuperblock@VWinLockType@HL@@$0BAAAA@V?$ProcessHeap@$0BAAAA@$07VWinLockType@HL@@VbogusThresholdFunctionClass@?$GlobalHeap@$0BAAAA@$07VWinLockType@HL@@@Hoard@@@Hoard@@@Hoard@@QBEHXZ
?getObjectsFree@?$HoardSuperblock@VWinLockType@HL@@$0BAAAA@VSmallHeap@Hoard@@@Hoard@@QBEHXZ
?getObjectsFree@?$HoardSuperblockHeader@VWinLockType@HL@@$0BAAAA@V?$ProcessHeap@$0BAAAA@$07VWinLockType@HL@@VbogusThresholdFunctionClass@?$GlobalHeap@$0BAAAA@$07VWinLockType@HL@@@Hoard@@@Hoard@@@Hoard@@QBEHXZ
?getObjectsFree@?$HoardSuperblockHeader@VWinLockType@HL@@$0BAAAA@VSmallHeap@Hoard@@@Hoard@@QBEHXZ
?getOwner@?$HoardSuperblock@VWinLockType@HL@@$0BAAAA@VSmallHeap@Hoard@@@Hoard@@QBEPAVSmallHeap@2@XZ
?getOwner@?$HoardSuperblockHeader@VWinLockType@HL@@$0BAAAA@VSmallHeap@Hoard@@@Hoard@@QBEPAVSmallHeap@2@XZ
?getPrev@?$HoardSuperblock@VWinLockType@HL@@$0BAAAA@V?$ProcessHeap@$0BAAAA@$07VWinLockType@HL@@VbogusThresholdFunctionClass@?$GlobalHeap@$0BAAAA@$07VWinLockType@HL@@@Hoard@@@Hoard@@@Hoard@@QBEPAV12@XZ
?getPrev@?$HoardSuperblock@VWinLockType@HL@@$0BAAAA@VSmallHeap@Hoard@@@Hoard@@QBEPAV12@XZ
?getPrev@?$HoardSuperblockHeader@VWinLockType@HL@@$0BAAAA@V?$ProcessHeap@$0BAAAA@$07VWinLockType@HL@@VbogusThresholdFunctionClass@?$GlobalHeap@$0BAAAA@$07VWinLockType@HL@@@Hoard@@@Hoard@@@Hoard@@QBEPAV?$HoardSuperblock@VWinLockType@HL@@$0BAAAA@V?$ProcessHeap@$0BAAAA@$07VWinLockType@HL@@VbogusThresholdFunctionClass@?$GlobalHeap@$0BAAAA@$07VWinLockType@HL@@@Hoard@@@Hoard@@@2@XZ
?getPrev@?$HoardSuperblockHeader@VWinLockType@HL@@$0BAAAA@VSmallHeap@Hoard@@@Hoard@@QBEPAV?$HoardSuperblock@VWinLockType@HL@@$0BAAAA@VSmallHeap@Hoard@@@2@XZ
?getSize@?$BaseHoardManager@V?$HoardSuperblock@VWinLockType@HL@@$0BAAAA@VSmallHeap@Hoard@@@Hoard@@@@SAIPAX@Z
?getSize@?$HoardSuperblock@VWinLockType@HL@@$0BAAAA@V?$ProcessHeap@$0BAAAA@$07VWinLockType@HL@@VbogusThresholdFunctionClass@?$GlobalHeap@$0BAAAA@$07VWinLockType@HL@@@Hoard@@@Hoard@@@Hoard@@QBEIPAX@Z
?getSize@?$HoardSuperblock@VWinLockType@HL@@$0BAAAA@VSmallHeap@Hoard@@@Hoard@@QBEIPAX@Z
?getSize@?$HoardSuperblockHeader@VWinLockType@HL@@$0BAAAA@V?$ProcessHeap@$0BAAAA@$07VWinLockType@HL@@VbogusThresholdFunctionClass@?$GlobalHeap@$0BAAAA@$07VWinLockType@HL@@@Hoard@@@Hoard@@@Hoard@@QBEIPAX@Z
?getSize@?$HoardSuperblockHeader@VWinLockType@HL@@$0BAAAA@VSmallHeap@Hoard@@@Hoard@@QBEIPAX@Z
?getSize@?$RedirectFree@V?$LockMallocHeap@VSmallHeap@Hoard@@@Hoard@@V?$HoardSuperblock@VWinLockType@HL@@$0BAAAA@VSmallHeap@Hoard@@@2@@Hoard@@QAEIPAX@Z
?getSize@?$ThreadLocalAllocationBuffer@$0DH@$1?getSizeClass@?$bins@V?$HoardSuperblockHeader@VWinLockType@HL@@$0BAAAA@VSmallHeap@Hoard@@@Hoard@@$0BAAAA@@HL@@SAHI@Z$1?getClassSize@23@SAIH@Z$0BAA@$0EAAAA@V?$HoardSuperblock@VWinLockType@HL@@$0BAAAA@VSmallHeap@Hoard@@@Hoard@@$0BAAAA@VHoardHeapType@6@@Hoard@@SAIPAX@Z
?getSize@?$ThreadPoolHeap@$0EAA@$0IA@VPerThreadHoardHeap@Hoard@@@Hoard@@QAEIPAX@Z
?getSizeClass@?$bins@V?$HoardSuperblockHeader@VWinLockType@HL@@$0BAAAA@V?$ProcessHeap@$0BAAAA@$07VWinLockType@HL@@VbogusThresholdFunctionClass@?$GlobalHeap@$0BAAAA@$07VWinLockType@HL@@@Hoard@@@Hoard@@@Hoard@@$0BAAAA@@HL@@SAHI@Z
?getSizeClass@?$bins@V?$HoardSuperblockHeader@VWinLockType@HL@@$0BAAAA@VSmallHeap@Hoard@@@Hoard@@$0BAAAA@@HL@@SAHI@Z
?getSuperblock@?$BaseHoardManager@V?$HoardSuperblock@VWinLockType@HL@@$0BAAAA@V?$ProcessHeap@$0BAAAA@$07VWinLockType@HL@@VbogusThresholdFunctionClass@?$GlobalHeap@$0BAAAA@$07VWinLockType@HL@@@Hoard@@@Hoard@@@Hoard@@@@SAPAV?$HoardSuperblock@VWinLockType@HL@@$0BAAAA@V?$ProcessHeap@$0BAAAA@$07VWinLockType@HL@@VbogusThresholdFunctionClass@?$GlobalHeap@$0BAAAA@$07VWinLockType@HL@@@Hoard@@@Hoard@@@Hoard@@PAX@Z
?getSuperblock@?$BaseHoardManager@V?$HoardSuperblock@VWinLockType@HL@@$0BAAAA@VSmallHeap@Hoard@@@Hoard@@@@SAPAV?$HoardSuperblock@VWinLockType@HL@@$0BAAAA@VSmallHeap@Hoard@@@Hoard@@PAX@Z
?getSuperblock@?$EmptyClass@V?$HoardSuperblock@VWinLockType@HL@@$0BAAAA@V?$ProcessHeap@$0BAAAA@$07VWinLockType@HL@@VbogusThresholdFunctionClass@?$GlobalHeap@$0BAAAA@$07VWinLockType@HL@@@Hoard@@@Hoard@@@Hoard@@$07@Hoard@@SAPAV?$HoardSuperblock@VWinLockType@HL@@$0BAAAA@V?$ProcessHeap@$0BAAAA@$07VWinLockType@HL@@VbogusThresholdFunctionClass@?$GlobalHeap@$0BAAAA@$07VWinLockType@HL@@@Hoard@@@Hoard@@@2@PAX@Z
?getSuperblock@?$EmptyClass@V?$HoardSuperblock@VWinLockType@HL@@$0BAAAA@VSmallHeap@Hoard@@@Hoard@@$07@Hoard@@SAPAV?$HoardSuperblock@VWinLockType@HL@@$0BAAAA@VSmallHeap@Hoard@@@2@PAX@Z
?getSuperblock@?$HoardSuperblock@VWinLockType@HL@@$0BAAAA@V?$ProcessHeap@$0BAAAA@$07VWinLockType@HL@@VbogusThresholdFunctionClass@?$GlobalHeap@$0BAAAA@$07VWinLockType@HL@@@Hoard@@@Hoard@@@Hoard@@SAPAV12@PAX@Z
?getSuperblock@?$HoardSuperblock@VWinLockType@HL@@$0BAAAA@VSmallHeap@Hoard@@@Hoard@@SAPAV12@PAX@Z
?getSuperblock@?$RedirectFree@V?$LockMallocHeap@VSmallHeap@Hoard@@@Hoard@@V?$HoardSuperblock@VWinLockType@HL@@$0BAAAA@VSmallHeap@Hoard@@@2@@Hoard@@QAEPAV?$HoardSuperblock@VWinLockType@HL@@$0BAAAA@VSmallHeap@Hoard@@@2@PAX@Z
?getSuperblock@?$ThreadLocalAllocationBuffer@$0DH@$1?getSizeClass@?$bins@V?$HoardSuperblockHeader@VWinLockType@HL@@$0BAAAA@VSmallHeap@Hoard@@@Hoard@@$0BAAAA@@HL@@SAHI@Z$1?getClassSize@23@SAIH@Z$0BAA@$0EAAAA@V?$HoardSuperblock@VWinLockType@HL@@$0BAAAA@VSmallHeap@Hoard@@@Hoard@@$0BAAAA@VHoardHeapType@6@@Hoard@@SAPAV?$HoardSuperblock@VWinLockType@HL@@$0BAAAA@VSmallHeap@Hoard@@@2@PAX@Z
?getThreadId@CPUInfo@HL@@SAHXZ
?getTidMap@?$ThreadPoolHeap@$0EAA@$0IA@VPerThreadHoardHeap@Hoard@@@Hoard@@QBEHH@Z
?getTotalObjects@?$HoardSuperblock@VWinLockType@HL@@$0BAAAA@V?$ProcessHeap@$0BAAAA@$07VWinLockType@HL@@VbogusThresholdFunctionClass@?$GlobalHeap@$0BAAAA@$07VWinLockType@HL@@@Hoard@@@Hoard@@@Hoard@@QBEHXZ
?getTotalObjects@?$HoardSuperblock@VWinLockType@HL@@$0BAAAA@VSmallHeap@Hoard@@@Hoard@@QBEHXZ
?getTotalObjects@?$HoardSuperblockHeader@VWinLockType@HL@@$0BAAAA@V?$ProcessHeap@$0BAAAA@$07VWinLockType@HL@@VbogusThresholdFunctionClass@?$GlobalHeap@$0BAAAA@$07VWinLockType@HL@@@Hoard@@@Hoard@@@Hoard@@QBEHXZ
?getTotalObjects@?$HoardSuperblockHeader@VWinLockType@HL@@$0BAAAA@VSmallHeap@Hoard@@@Hoard@@QBEHXZ
?inRange@?$HoardSuperblock@VWinLockType@HL@@$0BAAAA@V?$ProcessHeap@$0BAAAA@$07VWinLockType@HL@@VbogusThresholdFunctionClass@?$GlobalHeap@$0BAAAA@$07VWinLockType@HL@@@Hoard@@@Hoard@@@Hoard@@QBE_NPAX@Z
?inRange@?$HoardSuperblock@VWinLockType@HL@@$0BAAAA@VSmallHeap@Hoard@@@Hoard@@QBE_NPAX@Z
?initializeCustomHeap@@YAPAVTLAB@Hoard@@XZ
?insert@?$MyHashMap@PAXIVSourceHeap@?$AlignedMmapInstance@$0BAAAA@@Hoard@@@HL@@AAEXPAXI@Z
?insert@DLList@HL@@QAEXPAVEntry@12@@Z
?insert@Entry@DLList@HL@@QAEXPAV123@0@Z
?insert@FreeSLList@@QAEXPAX@Z
?isEmpty@DLList@HL@@QBE_NXZ
?isValid@?$HoardSuperblockHeader@VWinLockType@HL@@$0BAAAA@V?$ProcessHeap@$0BAAAA@$07VWinLockType@HL@@VbogusThresholdFunctionClass@?$GlobalHeap@$0BAAAA@$07VWinLockType@HL@@@Hoard@@@Hoard@@@Hoard@@QBE_NXZ
?isValid@?$HoardSuperblockHeader@VWinLockType@HL@@$0BAAAA@VSmallHeap@Hoard@@@Hoard@@QBE_NXZ
?isValidSuperblock@?$HoardSuperblock@VWinLockType@HL@@$0BAAAA@V?$ProcessHeap@$0BAAAA@$07VWinLockType@HL@@VbogusThresholdFunctionClass@?$GlobalHeap@$0BAAAA@$07VWinLockType@HL@@@Hoard@@@Hoard@@@Hoard@@QBE_NXZ
?isValidSuperblock@?$HoardSuperblock@VWinLockType@HL@@$0BAAAA@VSmallHeap@Hoard@@@Hoard@@QBE_NXZ
?lock@?$BaseHoardManager@V?$HoardSuperblock@VWinLockType@HL@@$0BAAAA@V?$ProcessHeap@$0BAAAA@$07VWinLockType@HL@@VbogusThresholdFunctionClass@?$GlobalHeap@$0BAAAA@$07VWinLockType@HL@@@Hoard@@@Hoard@@@Hoard@@@@UAEXXZ
?lock@?$BaseHoardManager@V?$HoardSuperblock@VWinLockType@HL@@$0BAAAA@VSmallHeap@Hoard@@@Hoard@@@@UAEXXZ
?lock@?$EmptyHoardManager@V?$HoardSuperblock@VWinLockType@HL@@$0BAAAA@V?$ProcessHeap@$0BAAAA@$07VWinLockType@HL@@VbogusThresholdFunctionClass@?$GlobalHeap@$0BAAAA@$07VWinLockType@HL@@@Hoard@@@Hoard@@@Hoard@@@@UAEXXZ
?lock@?$HoardManager@V?$AlignedSuperblockHeap@VWinLockType@HL@@$0BAAAA@@Hoard@@V?$EmptyHoardManager@V?$HoardSuperblock@VWinLockType@HL@@$0BAAAA@V?$ProcessHeap@$0BAAAA@$07VWinLockType@HL@@VbogusThresholdFunctionClass@?$GlobalHeap@$0BAAAA@$07VWinLockType@HL@@@Hoard@@@Hoard@@@Hoard@@@@V?$HoardSuperblock@VWinLockType@HL@@$0BAAAA@V?$ProcessHeap@$0BAAAA@$07VWinLockType@HL@@VbogusThresholdFunctionClass@?$GlobalHeap@$0BAAAA@$07VWinLockType@HL@@@Hoard@@@Hoard@@@2@$07VWinLockType@HL@@VbogusThresholdFunctionClass@?$GlobalHeap@$0BAAAA@$07VWinLockType@HL@@@2@V?$ProcessHeap@$0BAAAA@$07VWinLockType@HL@@VbogusThresholdFunctionClass@?$GlobalHeap@$0BAAAA@$07VWinLockType@HL@@@Hoard@@@2@@Hoard@@UAEXXZ
?lock@?$HoardManager@V?$AlignedSuperblockHeap@VWinLockType@HL@@$0BAAAA@@Hoard@@V?$GlobalHeap@$0BAAAA@$07VWinLockType@HL@@@2@V?$HoardSuperblock@VWinLockType@HL@@$0BAAAA@VSmallHeap@Hoard@@@2@$07VWinLockType@HL@@VhoardThresholdFunctionClass@2@VSmallHeap@2@@Hoard@@UAEXXZ
?lock@?$HoardSuperblock@VWinLockType@HL@@$0BAAAA@VSmallHeap@Hoard@@@Hoard@@QAEXXZ
?lock@?$HoardSuperblockHeader@VWinLockType@HL@@$0BAAAA@VSmallHeap@Hoard@@@Hoard@@QAEXXZ
?lock@WinLockType@HL@@QAEXXZ
?malloc@?$ANSIWrapper@V?$IgnoreInvalidFree@V?$HybridHeap@$0HPMA@V?$ThreadPoolHeap@$0EAA@$0IA@VPerThreadHoardHeap@Hoard@@@Hoard@@VBigHeap@2@@HL@@@Hoard@@@HL@@QAEPAXI@Z
?malloc@?$AddHeaderHeap@V?$HoardSuperblock@VWinLockType@HL@@$0BAAAA@VBigHeap@Hoard@@@Hoard@@$0BAAAA@V?$AlignedMmap@$0BAAAA@@2@@Hoard@@QAEPAXI@Z
?malloc@?$AlignedMmap@$0BAAAA@@Hoard@@QAEPAXI@Z
?malloc@?$AlignedMmapInstance@$0BAAAA@@Hoard@@QAEPAXI@Z
?malloc@?$BumpAlloc@$0BAAAA@VMmapAlloc@Hoard@@@Hoard@@QAEPAXI@Z
?malloc@?$FixedRequestHeap@$0BAAAA@V?$SuperblockStore@$0BAAAA@@Hoard@@@Hoard@@QAEPAXI@Z
?malloc@?$FreelistHeap@V?$BumpAlloc@$0BAAAA@VMmapAlloc@Hoard@@@Hoard@@@HL@@QAEPAXI@Z
?malloc@?$HoardManager@V?$AlignedSuperblockHeap@VWinLockType@HL@@$0BAAAA@@Hoard@@V?$GlobalHeap@$0BAAAA@$07VWinLockType@HL@@@2@V?$HoardSuperblock@VWinLockType@HL@@$0BAAAA@VSmallHeap@Hoard@@@2@$07VWinLockType@HL@@VhoardThresholdFunctionClass@2@VSmallHeap@2@@Hoard@@QAEPAXI@Z
?malloc@?$HoardSuperblock@VWinLockType@HL@@$0BAAAA@VSmallHeap@Hoard@@@Hoard@@QAEPAXI@Z
?malloc@?$HoardSuperblockHeader@VWinLockType@HL@@$0BAAAA@VSmallHeap@Hoard@@@Hoard@@QAEPAXXZ
?malloc@?$HybridHeap@$0HPMA@V?$ThreadPoolHeap@$0EAA@$0IA@VPerThreadHoardHeap@Hoard@@@Hoard@@VBigHeap@2@@HL@@QAEPAXI@Z
?malloc@?$LockMallocHeap@VSmallHeap@Hoard@@@Hoard@@QAEPAXI@Z
?malloc@?$LockedHeap@VWinLockType@HL@@V?$AddHeaderHeap@V?$HoardSuperblock@VWinLockType@HL@@$0BAAAA@VBigHeap@Hoard@@@Hoard@@$0BAAAA@V?$AlignedMmap@$0BAAAA@@2@@Hoard@@@HL@@QAEPAXI@Z
?malloc@?$LockedHeap@VWinLockType@HL@@V?$FixedRequestHeap@$0BAAAA@V?$SuperblockStore@$0BAAAA@@Hoard@@@Hoard@@@HL@@QAEPAXI@Z
?malloc@?$ManageOneSuperblock@V?$EmptyClass@V?$HoardSuperblock@VWinLockType@HL@@$0BAAAA@VSmallHeap@Hoard@@@Hoard@@$07@Hoard@@@Hoard@@QAEPAXI@Z
?malloc@?$RedirectFree@V?$LockMallocHeap@VSmallHeap@Hoard@@@Hoard@@V?$HoardSuperblock@VWinLockType@HL@@$0BAAAA@VSmallHeap@Hoard@@@2@@Hoard@@QAEPAXI@Z
?malloc@?$SuperblockStore@$0BAAAA@@Hoard@@QAEPAXI@Z
?malloc@?$ThreadLocalAllocationBuffer@$0DH@$1?getSizeClass@?$bins@V?$HoardSuperblockHeader@VWinLockType@HL@@$0BAAAA@VSmallHeap@Hoard@@@Hoard@@$0BAAAA@@HL@@SAHI@Z$1?getClassSize@23@SAIH@Z$0BAA@$0EAAAA@V?$HoardSuperblock@VWinLockType@HL@@$0BAAAA@VSmallHeap@Hoard@@@Hoard@@$0BAAAA@VHoardHeapType@6@@Hoard@@QAEPAXI@Z
?malloc@?$ThreadPoolHeap@$0EAA@$0IA@VPerThreadHoardHeap@Hoard@@@Hoard@@QAEPAXI@Z
?malloc@MmapAlloc@Hoard@@QAEPAXI@Z
?map@MmapWrapper@HL@@SAPAXI@Z
?normalize@?$HoardSuperblock@VWinLockType@HL@@$0BAAAA@VSmallHeap@Hoard@@@Hoard@@QBEPAXPAX@Z
?normalize@?$HoardSuperblockHeader@VWinLockType@HL@@$0BAAAA@VSmallHeap@Hoard@@@Hoard@@QBEPAXPAX@Z
?put@?$EmptyClass@V?$HoardSuperblock@VWinLockType@HL@@$0BAAAA@V?$ProcessHeap@$0BAAAA@$07VWinLockType@HL@@VbogusThresholdFunctionClass@?$GlobalHeap@$0BAAAA@$07VWinLockType@HL@@@Hoard@@@Hoard@@@Hoard@@$07@Hoard@@QAEXPAV?$HoardSuperblock@VWinLockType@HL@@$0BAAAA@V?$ProcessHeap@$0BAAAA@$07VWinLockType@HL@@VbogusThresholdFunctionClass@?$GlobalHeap@$0BAAAA@$07VWinLockType@HL@@@Hoard@@@Hoard@@@2@@Z
?put@?$EmptyClass@V?$HoardSuperblock@VWinLockType@HL@@$0BAAAA@VSmallHeap@Hoard@@@Hoard@@$07@Hoard@@QAEXPAV?$HoardSuperblock@VWinLockType@HL@@$0BAAAA@VSmallHeap@Hoard@@@2@@Z
?put@?$EmptyHoardManager@V?$HoardSuperblock@VWinLockType@HL@@$0BAAAA@V?$ProcessHeap@$0BAAAA@$07VWinLockType@HL@@VbogusThresholdFunctionClass@?$GlobalHeap@$0BAAAA@$07VWinLockType@HL@@@Hoard@@@Hoard@@@Hoard@@@@QAEXPAV?$HoardSuperblock@VWinLockType@HL@@$0BAAAA@V?$ProcessHeap@$0BAAAA@$07VWinLockType@HL@@VbogusThresholdFunctionClass@?$GlobalHeap@$0BAAAA@$07VWinLockType@HL@@@Hoard@@@Hoard@@@Hoard@@I@Z
?put@?$GlobalHeap@$0BAAAA@$07VWinLockType@HL@@@Hoard@@QAEXPAXI@Z
?put@?$HoardManager@V?$AlignedSuperblockHeap@VWinLockType@HL@@$0BAAAA@@Hoard@@V?$EmptyHoardManager@V?$HoardSuperblock@VWinLockType@HL@@$0BAAAA@V?$ProcessHeap@$0BAAAA@$07VWinLockType@HL@@VbogusThresholdFunctionClass@?$GlobalHeap@$0BAAAA@$07VWinLockType@HL@@@Hoard@@@Hoard@@@Hoard@@@@V?$HoardSuperblock@VWinLockType@HL@@$0BAAAA@V?$ProcessHeap@$0BAAAA@$07VWinLockType@HL@@VbogusThresholdFunctionClass@?$GlobalHeap@$0BAAAA@$07VWinLockType@HL@@@Hoard@@@Hoard@@@2@$07VWinLockType@HL@@VbogusThresholdFunctionClass@?$GlobalHeap@$0BAAAA@$07VWinLockType@HL@@@2@V?$ProcessHeap@$0BAAAA@$07VWinLockType@HL@@VbogusThresholdFunctionClass@?$GlobalHeap@$0BAAAA@$07VWinLockType@HL@@@Hoard@@@2@@Hoard@@QAEXPAV?$HoardSuperblock@VWinLockType@HL@@$0BAAAA@V?$ProcessHeap@$0BAAAA@$07VWinLockType@HL@@VbogusThresholdFunctionClass@?$GlobalHeap@$0BAAAA@$07VWinLockType@HL@@@Hoard@@@Hoard@@@2@I@Z
?put@?$ManageOneSuperblock@V?$EmptyClass@V?$HoardSuperblock@VWinLockType@HL@@$0BAAAA@V?$ProcessHeap@$0BAAAA@$07VWinLockType@HL@@VbogusThresholdFunctionClass@?$GlobalHeap@$0BAAAA@$07VWinLockType@HL@@@Hoard@@@Hoard@@@Hoard@@$07@Hoard@@@Hoard@@QAEXPAV?$HoardSuperblock@VWinLockType@HL@@$0BAAAA@V?$ProcessHeap@$0BAAAA@$07VWinLockType@HL@@VbogusThresholdFunctionClass@?$GlobalHeap@$0BAAAA@$07VWinLockType@HL@@@Hoard@@@Hoard@@@2@@Z
?put@?$ManageOneSuperblock@V?$EmptyClass@V?$HoardSuperblock@VWinLockType@HL@@$0BAAAA@VSmallHeap@Hoard@@@Hoard@@$07@Hoard@@@Hoard@@QAEXPAV?$HoardSuperblock@VWinLockType@HL@@$0BAAAA@VSmallHeap@Hoard@@@2@@Z
?reapAlloc@?$HoardSuperblockHeader@VWinLockType@HL@@$0BAAAA@VSmallHeap@Hoard@@@Hoard@@AAEPAXXZ
?refill@?$BumpAlloc@$0BAAAA@VMmapAlloc@Hoard@@@Hoard@@AAEXI@Z
?releaseHeap@?$HeapManager@VWinLockType@HL@@V?$HoardHeap@$0EAA@$0IA@@Hoard@@@Hoard@@QAEXXZ
?set@?$MyHashMap@PAXIVSourceHeap@?$AlignedMmapInstance@$0BAAAA@@Hoard@@@HL@@QAEXPAXI@Z
?setAllocated@Statistics@Hoard@@QAEXH@Z
?setInUse@Statistics@Hoard@@QAEXH@Z
?setInusemap@?$ThreadPoolHeap@$0EAA@$0IA@VPerThreadHoardHeap@Hoard@@@Hoard@@QAEXHH@Z
?setNext@?$HoardSuperblock@VWinLockType@HL@@$0BAAAA@V?$ProcessHeap@$0BAAAA@$07VWinLockType@HL@@VbogusThresholdFunctionClass@?$GlobalHeap@$0BAAAA@$07VWinLockType@HL@@@Hoard@@@Hoard@@@Hoard@@QAEXPAV12@@Z
?setNext@?$HoardSuperblock@VWinLockType@HL@@$0BAAAA@VSmallHeap@Hoard@@@Hoard@@QAEXPAV12@@Z
?setNext@?$HoardSuperblockHeader@VWinLockType@HL@@$0BAAAA@V?$ProcessHeap@$0BAAAA@$07VWinLockType@HL@@VbogusThresholdFunctionClass@?$GlobalHeap@$0BAAAA@$07VWinLockType@HL@@@Hoard@@@Hoard@@@Hoard@@QAEXPAV?$HoardSuperblock@VWinLockType@HL@@$0BAAAA@V?$ProcessHeap@$0BAAAA@$07VWinLockType@HL@@VbogusThresholdFunctionClass@?$GlobalHeap@$0BAAAA@$07VWinLockType@HL@@@Hoard@@@Hoard@@@2@@Z
?setNext@?$HoardSuperblockHeader@VWinLockType@HL@@$0BAAAA@VSmallHeap@Hoard@@@Hoard@@QAEXPAV?$HoardSuperblock@VWinLockType@HL@@$0BAAAA@VSmallHeap@Hoard@@@2@@Z
?setNext@Entry@DLList@HL@@QAEXPAV123@@Z
?setOwner@?$HoardSuperblock@VWinLockType@HL@@$0BAAAA@V?$ProcessHeap@$0BAAAA@$07VWinLockType@HL@@VbogusThresholdFunctionClass@?$GlobalHeap@$0BAAAA@$07VWinLockType@HL@@@Hoard@@@Hoard@@@Hoard@@QAEXPAV?$ProcessHeap@$0BAAAA@$07VWinLockType@HL@@VbogusThresholdFunctionClass@?$GlobalHeap@$0BAAAA@$07VWinLockType@HL@@@Hoard@@@2@@Z
?setOwner@?$HoardSuperblock@VWinLockType@HL@@$0BAAAA@VSmallHeap@Hoard@@@Hoard@@QAEXPAVSmallHeap@2@@Z
?setOwner@?$HoardSuperblockHeader@VWinLockType@HL@@$0BAAAA@V?$ProcessHeap@$0BAAAA@$07VWinLockType@HL@@VbogusThresholdFunctionClass@?$GlobalHeap@$0BAAAA@$07VWinLockType@HL@@@Hoard@@@Hoard@@@Hoard@@QAEXPAV?$ProcessHeap@$0BAAAA@$07VWinLockType@HL@@VbogusThresholdFunctionClass@?$GlobalHeap@$0BAAAA@$07VWinLockType@HL@@@Hoard@@@2@@Z
?setOwner@?$HoardSuperblockHeader@VWinLockType@HL@@$0BAAAA@VSmallHeap@Hoard@@@Hoard@@QAEXPAVSmallHeap@2@@Z
?setPrev@?$HoardSuperblock@VWinLockType@HL@@$0BAAAA@V?$ProcessHeap@$0BAAAA@$07VWinLockType@HL@@VbogusThresholdFunctionClass@?$GlobalHeap@$0BAAAA@$07VWinLockType@HL@@@Hoard@@@Hoard@@@Hoard@@QAEXPAV12@@Z
?setPrev@?$HoardSuperblock@VWinLockType@HL@@$0BAAAA@VSmallHeap@Hoard@@@Hoard@@QAEXPAV12@@Z
?setPrev@?$HoardSuperblockHeader@VWinLockType@HL@@$0BAAAA@V?$ProcessHeap@$0BAAAA@$07VWinLockType@HL@@VbogusThresholdFunctionClass@?$GlobalHeap@$0BAAAA@$07VWinLockType@HL@@@Hoard@@@Hoard@@@Hoard@@QAEXPAV?$HoardSuperblock@VWinLockType@HL@@$0BAAAA@V?$ProcessHeap@$0BAAAA@$07VWinLockType@HL@@VbogusThresholdFunctionClass@?$GlobalHeap@$0BAAAA@$07VWinLockType@HL@@@Hoard@@@Hoard@@@2@@Z
?setPrev@?$HoardSuperblockHeader@VWinLockType@HL@@$0BAAAA@VSmallHeap@Hoard@@@Hoard@@QAEXPAV?$HoardSuperblock@VWinLockType@HL@@$0BAAAA@VSmallHeap@Hoard@@@2@@Z
?setPrev@Entry@DLList@HL@@QAEXPAV123@@Z
?setTidMap@?$ThreadPoolHeap@$0EAA@$0IA@VPerThreadHoardHeap@Hoard@@@Hoard@@QAEXHH@Z
?slowGetSizeClass@?$bins@V?$HoardSuperblockHeader@VWinLockType@HL@@$0BAAAA@V?$ProcessHeap@$0BAAAA@$07VWinLockType@HL@@VbogusThresholdFunctionClass@?$GlobalHeap@$0BAAAA@$07VWinLockType@HL@@@Hoard@@@Hoard@@@Hoard@@$0BAAAA@@HL@@CAII@Z
?slowGetSizeClass@?$bins@V?$HoardSuperblockHeader@VWinLockType@HL@@$0BAAAA@VSmallHeap@Hoard@@@Hoard@@$0BAAAA@@HL@@CAII@Z
?slowMallocPath@?$ManageOneSuperblock@V?$EmptyClass@V?$HoardSuperblock@VWinLockType@HL@@$0BAAAA@VSmallHeap@Hoard@@@Hoard@@$07@Hoard@@@Hoard@@AAEPAXI@Z
?slowPath@?$HybridHeap@$0HPMA@V?$ThreadPoolHeap@$0EAA@$0IA@VPerThreadHoardHeap@Hoard@@@Hoard@@VBigHeap@2@@HL@@AAEPAXI@Z
?slowPathFree@?$HoardManager@V?$AlignedSuperblockHeap@VWinLockType@HL@@$0BAAAA@@Hoard@@V?$EmptyHoardManager@V?$HoardSuperblock@VWinLockType@HL@@$0BAAAA@V?$ProcessHeap@$0BAAAA@$07VWinLockType@HL@@VbogusThresholdFunctionClass@?$GlobalHeap@$0BAAAA@$07VWinLockType@HL@@@Hoard@@@Hoard@@@Hoard@@@@V?$HoardSuperblock@VWinLockType@HL@@$0BAAAA@V?$ProcessHeap@$0BAAAA@$07VWinLockType@HL@@VbogusThresholdFunctionClass@?$GlobalHeap@$0BAAAA@$07VWinLockType@HL@@@Hoard@@@Hoard@@@2@$07VWinLockType@HL@@VbogusThresholdFunctionClass@?$GlobalHeap@$0BAAAA@$07VWinLockType@HL@@@2@V?$ProcessHeap@$0BAAAA@$07VWinLockType@HL@@VbogusThresholdFunctionClass@?$GlobalHeap@$0BAAAA@$07VWinLockType@HL@@@Hoard@@@2@@Hoard@@AAEXHHH@Z
?slowPathFree@?$HoardManager@V?$AlignedSuperblockHeap@VWinLockType@HL@@$0BAAAA@@Hoard@@V?$GlobalHeap@$0BAAAA@$07VWinLockType@HL@@@2@V?$HoardSuperblock@VWinLockType@HL@@$0BAAAA@VSmallHeap@Hoard@@@2@$07VWinLockType@HL@@VhoardThresholdFunctionClass@2@VSmallHeap@2@@Hoard@@AAEXHHH@Z
?slowPathMalloc@?$HoardManager@V?$AlignedSuperblockHeap@VWinLockType@HL@@$0BAAAA@@Hoard@@V?$GlobalHeap@$0BAAAA@$07VWinLockType@HL@@@2@V?$HoardSuperblock@VWinLockType@HL@@$0BAAAA@VSmallHeap@Hoard@@@2@$07VWinLockType@HL@@VhoardThresholdFunctionClass@2@VSmallHeap@2@@Hoard@@AAEPAXI@Z
?transfer@?$EmptyClass@V?$HoardSuperblock@VWinLockType@HL@@$0BAAAA@V?$ProcessHeap@$0BAAAA@$07VWinLockType@HL@@VbogusThresholdFunctionClass@?$GlobalHeap@$0BAAAA@$07VWinLockType@HL@@@Hoard@@@Hoard@@@Hoard@@$07@Hoard@@AAEXPAV?$HoardSuperblock@VWinLockType@HL@@$0BAAAA@V?$ProcessHeap@$0BAAAA@$07VWinLockType@HL@@VbogusThresholdFunctionClass@?$GlobalHeap@$0BAAAA@$07VWinLockType@HL@@@Hoard@@@Hoard@@@2@HH@Z
?transfer@?$EmptyClass@V?$HoardSuperblock@VWinLockType@HL@@$0BAAAA@VSmallHeap@Hoard@@@Hoard@@$07@Hoard@@AAEXPAV?$HoardSuperblock@VWinLockType@HL@@$0BAAAA@VSmallHeap@Hoard@@@2@HH@Z
?unlock@?$BaseHoardManager@V?$HoardSuperblock@VWinLockType@HL@@$0BAAAA@V?$ProcessHeap@$0BAAAA@$07VWinLockType@HL@@VbogusThresholdFunctionClass@?$GlobalHeap@$0BAAAA@$07VWinLockType@HL@@@Hoard@@@Hoard@@@Hoard@@@@UAEXXZ
?unlock@?$BaseHoardManager@V?$HoardSuperblock@VWinLockType@HL@@$0BAAAA@VSmallHeap@Hoard@@@Hoard@@@@UAEXXZ
?unlock@?$EmptyHoardManager@V?$HoardSuperblock@VWinLockType@HL@@$0BAAAA@V?$ProcessHeap@$0BAAAA@$07VWinLockType@HL@@VbogusThresholdFunctionClass@?$GlobalHeap@$0BAAAA@$07VWinLockType@HL@@@Hoard@@@Hoard@@@Hoard@@@@UAEXXZ
?unlock@?$HoardManager@V?$AlignedSuperblockHeap@VWinLockType@HL@@$0BAAAA@@Hoard@@V?$EmptyHoardManager@V?$HoardSuperblock@VWinLockType@HL@@$0BAAAA@V?$ProcessHeap@$0BAAAA@$07VWinLockType@HL@@VbogusThresholdFunctionClass@?$GlobalHeap@$0BAAAA@$07VWinLockType@HL@@@Hoard@@@Hoard@@@Hoard@@@@V?$HoardSuperblock@VWinLockType@HL@@$0BAAAA@V?$ProcessHeap@$0BAAAA@$07VWinLockType@HL@@VbogusThresholdFunctionClass@?$GlobalHeap@$0BAAAA@$07VWinLockType@HL@@@Hoard@@@Hoard@@@2@$07VWinLockType@HL@@VbogusThresholdFunctionClass@?$GlobalHeap@$0BAAAA@$07VWinLockType@HL@@@2@V?$ProcessHeap@$0BAAAA@$07VWinLockType@HL@@VbogusThresholdFunctionClass@?$GlobalHeap@$0BAAAA@$07VWinLockType@HL@@@Hoard@@@2@@Hoard@@UAEXXZ
?unlock@?$HoardManager@V?$AlignedSuperblockHeap@VWinLockType@HL@@$0BAAAA@@Hoard@@V?$GlobalHeap@$0BAAAA@$07VWinLockType@HL@@@2@V?$HoardSuperblock@VWinLockType@HL@@$0BAAAA@VSmallHeap@Hoard@@@2@$07VWinLockType@HL@@VhoardThresholdFunctionClass@2@VSmallHeap@2@@Hoard@@UAEXXZ
?unlock@?$HoardSuperblock@VWinLockType@HL@@$0BAAAA@VSmallHeap@Hoard@@@Hoard@@QAEXXZ
?unlock@?$HoardSuperblockHeader@VWinLockType@HL@@$0BAAAA@VSmallHeap@Hoard@@@Hoard@@QAEXXZ
?unlock@WinLockType@HL@@QAEXXZ
?unlocked_put@?$HoardManager@V?$AlignedSuperblockHeap@VWinLockType@HL@@$0BAAAA@@Hoard@@V?$EmptyHoardManager@V?$HoardSuperblock@VWinLockType@HL@@$0BAAAA@V?$ProcessHeap@$0BAAAA@$07VWinLockType@HL@@VbogusThresholdFunctionClass@?$GlobalHeap@$0BAAAA@$07VWinLockType@HL@@@Hoard@@@Hoard@@@Hoard@@@@V?$HoardSuperblock@VWinLockType@HL@@$0BAAAA@V?$ProcessHeap@$0BAAAA@$07VWinLockType@HL@@VbogusThresholdFunctionClass@?$GlobalHeap@$0BAAAA@$07VWinLockType@HL@@@Hoard@@@Hoard@@@2@$07VWinLockType@HL@@VbogusThresholdFunctionClass@?$GlobalHeap@$0BAAAA@$07VWinLockType@HL@@@2@V?$ProcessHeap@$0BAAAA@$07VWinLockType@HL@@VbogusThresholdFunctionClass@?$GlobalHeap@$0BAAAA@$07VWinLockType@HL@@@Hoard@@@2@@Hoard@@AAEXPAV?$HoardSuperblock@VWinLockType@HL@@$0BAAAA@V?$ProcessHeap@$0BAAAA@$07VWinLockType@HL@@VbogusThresholdFunctionClass@?$GlobalHeap@$0BAAAA@$07VWinLockType@HL@@@Hoard@@@Hoard@@@2@I@Z
?unlocked_put@?$HoardManager@V?$AlignedSuperblockHeap@VWinLockType@HL@@$0BAAAA@@Hoard@@V?$GlobalHeap@$0BAAAA@$07VWinLockType@HL@@@2@V?$HoardSuperblock@VWinLockType@HL@@$0BAAAA@VSmallHeap@Hoard@@@2@$07VWinLockType@HL@@VhoardThresholdFunctionClass@2@VSmallHeap@2@@Hoard@@AAEXPAV?$HoardSuperblock@VWinLockType@HL@@$0BAAAA@VSmallHeap@Hoard@@@2@I@Z
?unmap@MmapWrapper@HL@@SAXPAXI@Z
?yield@Fred@HL@@SAXXZ
calloc
free
malloc
malloc_usable_size
mallopt
memalign
pvalloc
realloc
strdup
valloc
